target datalayout = "e-m:e-p270:32:32-p271:32:32-p272:64:64-i64:64-i128:128-f80:128-n8:16:32:64-S128"
target triple = "x86_64-unknown-linux-gnu"

%struct.assoc_array_ops = type { ptr, ptr, ptr, ptr, ptr }
%struct.keyring_search_context = type { %struct.keyring_index_key, ptr, %struct.key_match_data, i32, ptr, i32, i8, ptr, i64 }
%struct.keyring_index_key = type { i64, %union.anon.7, ptr, ptr, ptr }
%union.anon.7 = type { i64 }
%struct.key_match_data = type { ptr, ptr, ptr, i32 }

@keyring_assoc_array_ops = internal constant %struct.assoc_array_ops { ptr @keyring_get_key_chunk, ptr @keyring_get_object_key_chunk, ptr @keyring_compare_object, ptr @keyring_diff_objects, ptr @keyring_free_object }, align 8
@.str.1 = private unnamed_addr constant [24 x i8] c"security/keys/keyring.c\00", align 1

; Function Attrs: fn_ret_thunk_extern nounwind null_pointer_is_valid
define dso_local i32 @__key_link_begin(ptr noundef %0, ptr noundef %1, ptr nocapture noundef %2) local_unnamed_addr #0 align 16 {
  %4 = getelementptr inbounds i8, ptr %1, i64 8
  %5 = load i16, ptr %4, align 8
  %6 = icmp eq i16 %5, 0
  br i1 %6, label %7, label %8, !prof !14

7:                                                ; preds = %3
  tail call void asm sideeffect "465: nop\0A\09.pushsection .discard.instr_begin\0A\09.long 465b - .\0A\09.popsection\0A\09", "i,~{dirflag},~{fpsr},~{flags}"(i32 465) #19, !srcloc !28
  tail call void asm sideeffect "1:\09.byte 0x0f, 0x0b\0A.pushsection __bug_table,\22aw\22\0A2:\09.long 1b - .\09# bug_entry::bug_addr\0A\09.long ${0:c} - .\09# bug_entry::file\0A\09.word ${1:c}\09# bug_entry::line\0A\09.word ${2:c}\09# bug_entry::flags\0A\09.org 2b+${3:c}\0A.popsection\0A", "i,i,i,i,~{dirflag},~{fpsr},~{flags}"(ptr nonnull @.str.1, i32 1302, i32 0, i64 12) #19, !srcloc !29
  unreachable

8:                                                ; preds = %3
  %9 = load ptr, ptr %2, align 8
  %10 = icmp eq ptr %9, null
  br i1 %10, label %12, label %11, !prof !12

11:                                               ; preds = %8
  tail call void asm sideeffect "466: nop\0A\09.pushsection .discard.instr_begin\0A\09.long 466b - .\0A\09.popsection\0A\09", "i,~{dirflag},~{fpsr},~{flags}"(i32 466) #19, !srcloc !30
  tail call void asm sideeffect "1:\09.byte 0x0f, 0x0b\0A.pushsection __bug_table,\22aw\22\0A2:\09.long 1b - .\09# bug_entry::bug_addr\0A\09.long ${0:c} - .\09# bug_entry::file\0A\09.word ${1:c}\09# bug_entry::line\0A\09.word ${2:c}\09# bug_entry::flags\0A\09.org 2b+${3:c}\0A.popsection\0A", "i,i,i,i,~{dirflag},~{fpsr},~{flags}"(ptr nonnull @.str.1, i32 1303, i32 0, i64 12) #19, !srcloc !31
  unreachable

12:                                               ; preds = %8
  store ptr null, ptr %2, align 8
  %13 = getelementptr inbounds i8, ptr %0, i64 128
  %14 = load volatile i64, ptr %13, align 8
  %15 = and i64 %14, 2
  %16 = icmp eq i64 %15, 0
  br i1 %16, label %17, label %37

17:                                               ; preds = %12
  %18 = getelementptr inbounds i8, ptr %0, i64 192
  %19 = tail call ptr @assoc_array_insert(ptr noundef %18, ptr noundef nonnull @keyring_assoc_array_ops, ptr noundef %1, ptr noundef null) #19
  %20 = icmp ugt ptr %19, inttoptr (i64 -4096 to ptr)
  br i1 %20, label %21, label %24

21:                                               ; preds = %17
  %22 = ptrtoint ptr %19 to i64
  %23 = trunc i64 %22 to i32
  br label %37

24:                                               ; preds = %17
  %25 = getelementptr inbounds i8, ptr %19, i64 56
  %26 = load ptr, ptr %25, align 8
  %27 = icmp eq ptr %26, null
  br i1 %27, label %28, label %35

28:                                               ; preds = %24
  %29 = getelementptr inbounds i8, ptr %0, i64 118
  %30 = load i16, ptr %29, align 2
  %31 = zext i16 %30 to i64
  %32 = add nuw nsw i64 %31, 4
  %33 = tail call i32 @key_payload_reserve(ptr noundef %0, i64 noundef %32) #19
  %34 = icmp slt i32 %33, 0
  br i1 %34, label %36, label %35

35:                                               ; preds = %28, %24
  store ptr %19, ptr %2, align 8
  br label %37

36:                                               ; preds = %28
  tail call void @assoc_array_cancel_edit(ptr noundef %19) #19
  br label %37

37:                                               ; preds = %36, %35, %21, %12
  %38 = phi i32 [ 0, %35 ], [ %23, %21 ], [ %33, %36 ], [ -128, %12 ]
  ret i32 %38
}

; Function Attrs: fn_ret_thunk_extern nounwind null_pointer_is_valid
define dso_local i32 @key_move(ptr noundef %0, ptr noundef %1, ptr noundef %2, i32 noundef %3) #0 align 16 {
  %5 = alloca %struct.keyring_search_context, align 8
  %6 = alloca ptr, align 8
  call void @llvm.lifetime.start.p0(i64 8, ptr nonnull %6) #19
  store ptr null, ptr %6, align 8
  %7 = icmp eq ptr %1, %2
  br i1 %7, label %144, label %8

8:                                                ; preds = %4
  %9 = getelementptr inbounds i8, ptr %0, i64 136
  %10 = getelementptr inbounds i8, ptr %1, i64 152
  %11 = load ptr, ptr %10, align 8
  %12 = icmp eq ptr %11, @key_type_keyring
  br i1 %12, label %13, label %27

13:                                               ; preds = %8
  %14 = getelementptr inbounds i8, ptr %2, i64 152
  %15 = load ptr, ptr %14, align 8
  %16 = icmp eq ptr %15, @key_type_keyring
  br i1 %16, label %17, label %27

17:                                               ; preds = %13
  %18 = icmp ult ptr %1, %2
  %19 = select i1 %18, ptr %1, ptr %2
  %20 = select i1 %18, ptr %2, ptr %1
  %21 = getelementptr inbounds i8, ptr %19, i64 32
  tail call void @down_write(ptr noundef %21) #19
  %22 = getelementptr inbounds i8, ptr %20, i64 32
  tail call void @down_write(ptr noundef %22) #19
  %23 = getelementptr inbounds i8, ptr %0, i64 152
  %24 = load ptr, ptr %23, align 8
  %25 = icmp eq ptr %24, @key_type_keyring
  br i1 %25, label %26, label %27

26:                                               ; preds = %17
  tail call void @mutex_lock(ptr noundef nonnull @keyring_serialise_link_lock) #19
  br label %27

27:                                               ; preds = %26, %17, %13, %8
  %28 = phi i1 [ true, %13 ], [ true, %8 ], [ false, %26 ], [ false, %17 ]
  %29 = phi i32 [ -20, %13 ], [ -20, %8 ], [ 0, %26 ], [ 0, %17 ]
  br i1 %28, label %144, label %30

30:                                               ; preds = %27
  %31 = getelementptr inbounds i8, ptr %1, i64 192
  %32 = tail call ptr @assoc_array_delete(ptr noundef %31, ptr noundef nonnull @keyring_assoc_array_ops, ptr noundef %9) #19
  %33 = icmp ugt ptr %32, inttoptr (i64 -4096 to ptr)
  %34 = ptrtoint ptr %32 to i64
  %35 = trunc i64 %34 to i32
  %36 = icmp eq ptr %32, null
  %37 = select i1 %36, i32 -2, i32 0
  %38 = select i1 %33, ptr null, ptr %32
  %39 = select i1 %33, i32 %35, i32 %37
  %40 = icmp slt i32 %39, 0
  br i1 %40, label %113, label %41

41:                                               ; preds = %30
  %42 = call i32 @__key_link_begin(ptr noundef %2, ptr noundef %9, ptr noundef nonnull %6)
  %43 = icmp slt i32 %42, 0
  br i1 %43, label %113, label %44

44:                                               ; preds = %41
  %45 = load ptr, ptr %6, align 8
  %46 = getelementptr inbounds i8, ptr %45, i64 56
  %47 = load ptr, ptr %46, align 8
  %48 = icmp eq ptr %47, null
  %49 = and i32 %3, 1
  %50 = icmp eq i32 %49, 0
  %51 = or i1 %50, %48
  br i1 %51, label %52, label %113

52:                                               ; preds = %44
  %53 = getelementptr inbounds i8, ptr %2, i64 208
  %54 = load ptr, ptr %53, align 8
  %55 = icmp eq ptr %54, null
  br i1 %55, label %66, label %56

56:                                               ; preds = %52
  %57 = load ptr, ptr %54, align 8
  %58 = icmp eq ptr %57, null
  br i1 %58, label %66, label %59

59:                                               ; preds = %56
  %60 = getelementptr inbounds i8, ptr %0, i64 152
  %61 = load ptr, ptr %60, align 8
  %62 = getelementptr inbounds i8, ptr %0, i64 176
  %63 = getelementptr inbounds i8, ptr %54, i64 8
  %64 = load ptr, ptr %63, align 8
  %65 = tail call i32 %57(ptr noundef %2, ptr noundef %61, ptr noundef %62, ptr noundef %64) #19
  br label %66

66:                                               ; preds = %59, %56, %52
  %67 = phi i32 [ %65, %59 ], [ 0, %56 ], [ 0, %52 ]
  %68 = icmp slt i32 %67, 0
  br i1 %68, label %113, label %69

69:                                               ; preds = %66
  %70 = getelementptr inbounds i8, ptr %0, i64 152
  %71 = load ptr, ptr %70, align 8
  %72 = icmp eq ptr %71, @key_type_keyring
  br i1 %72, label %73, label %88

73:                                               ; preds = %69
  call void @llvm.lifetime.start.p0(i64 120, ptr nonnull %5) #19
  %74 = getelementptr inbounds i8, ptr %2, i64 136
  %75 = getelementptr inbounds i8, ptr %5, i64 40
  call void @llvm.memset.p0.i64(ptr noundef align 8 dereferenceable(80) %75, i8 0, i64 80, i1 false)
  call void @llvm.memcpy.p0.p0.i64(ptr noundef nonnull align 8 dereferenceable(40) %5, ptr noundef align 8 dereferenceable(40) %74, i64 40, i1 false)
  %76 = getelementptr inbounds i8, ptr %5, i64 56
  call void @llvm.memset.p0.i64(ptr noundef align 8 dereferenceable(40) %75, i8 0, i64 40, i1 false)
  store ptr %2, ptr %76, align 8
  %77 = getelementptr inbounds i8, ptr %5, i64 80
  store i32 93, ptr %77, align 8
  %78 = getelementptr inbounds i8, ptr %5, i64 88
  store ptr @keyring_detect_cycle_iterator, ptr %78, align 8
  %79 = getelementptr inbounds i8, ptr %5, i64 96
  store i32 0, ptr %79, align 8
  %80 = getelementptr inbounds i8, ptr %5, i64 100
  store i8 0, ptr %80, align 4
  %81 = getelementptr inbounds i8, ptr %5, i64 104
  call void @llvm.memset.p0.i64(ptr noundef align 8 dereferenceable(16) %81, i8 0, i64 16, i1 false)
  tail call void @__rcu_read_lock() #19
  %82 = call fastcc zeroext i1 @search_nested_keyrings(ptr noundef %0, ptr noundef nonnull %5)
  call void @__rcu_read_unlock() #19
  %83 = load ptr, ptr %81, align 8
  %84 = ptrtoint ptr %83 to i64
  %85 = icmp eq ptr %83, inttoptr (i64 -11 to ptr)
  %86 = trunc i64 %84 to i32
  %87 = select i1 %85, i32 0, i32 %86
  call void @llvm.lifetime.end.p0(i64 120, ptr nonnull %5) #19
  br label %88

88:                                               ; preds = %73, %69
  %89 = phi i32 [ %87, %73 ], [ 0, %69 ]
  %90 = icmp slt i32 %89, 0
  br i1 %90, label %113, label %91

91:                                               ; preds = %88
  call void @assoc_array_apply_edit(ptr noundef %38) #19
  %92 = getelementptr inbounds i8, ptr %1, i64 118
  %93 = load i16, ptr %92, align 2
  %94 = zext i16 %93 to i64
  %95 = add nsw i64 %94, -4
  %96 = call i32 @key_payload_reserve(ptr noundef %1, i64 noundef %95) #19
  %97 = call i32 asm sideeffect ".pushsection .smp_locks,\22a\22\0A.balign 4\0A.long 671f - .\0A.popsection\0A671:\0A\09lock; xaddl $0, $1\0A", "=r,=*m,0,*m,~{memory},~{cc},~{dirflag},~{fpsr},~{flags}"(ptr elementtype(i32) %0, i32 1, ptr elementtype(i32) %0) #19, !srcloc !13
  %98 = icmp eq i32 %97, 0
  br i1 %98, label %103, label %99, !prof !14

99:                                               ; preds = %91
  %100 = add i32 %97, 1
  %101 = or i32 %100, %97
  %102 = icmp sgt i32 %101, -1
  br i1 %102, label %105, label %103, !prof !12

103:                                              ; preds = %99, %91
  %104 = phi i32 [ 2, %91 ], [ 1, %99 ]
  call void @refcount_warn_saturate(ptr noundef %0, i32 noundef %104) #19
  br label %105

105:                                              ; preds = %103, %99
  %106 = load ptr, ptr %6, align 8
  %107 = load ptr, ptr %70, align 8
  %108 = icmp eq ptr %107, @key_type_keyring
  %109 = ptrtoint ptr %0 to i64
  %110 = or i64 %109, 2
  %111 = inttoptr i64 %110 to ptr
  %112 = select i1 %108, ptr %111, ptr %0
  call void @assoc_array_insert_set_object(ptr noundef %106, ptr noundef %112) #19
  call void @assoc_array_apply_edit(ptr noundef %106) #19
  store ptr null, ptr %6, align 8
  br label %113

113:                                              ; preds = %105, %88, %66, %44, %41, %30
  %114 = phi ptr [ %38, %30 ], [ %38, %41 ], [ %38, %66 ], [ %38, %88 ], [ null, %105 ], [ %38, %44 ]
  %115 = phi i32 [ %39, %30 ], [ %42, %41 ], [ %67, %66 ], [ %89, %88 ], [ %89, %105 ], [ -17, %44 ]
  %116 = load ptr, ptr %6, align 8
  %117 = getelementptr inbounds i8, ptr %0, i64 152
  %118 = load ptr, ptr %117, align 8
  %119 = icmp eq ptr %118, null
  br i1 %119, label %120, label %121, !prof !14

120:                                              ; preds = %113
  call void asm sideeffect "467: nop\0A\09.pushsection .discard.instr_begin\0A\09.long 467b - .\0A\09.popsection\0A\09", "i,~{dirflag},~{fpsr},~{flags}"(i32 467) #19, !srcloc !32
  call void asm sideeffect "1:\09.byte 0x0f, 0x0b\0A.pushsection __bug_table,\22aw\22\0A2:\09.long 1b - .\09# bug_entry::bug_addr\0A\09.long ${0:c} - .\09# bug_entry::file\0A\09.word ${1:c}\09# bug_entry::line\0A\09.word ${2:c}\09# bug_entry::flags\0A\09.org 2b+${3:c}\0A.popsection\0A", "i,i,i,i,~{dirflag},~{fpsr},~{flags}"(ptr nonnull @.str.1, i32 1388, i32 0, i64 12) #19, !srcloc !33
  unreachable

121:                                              ; preds = %113
  %122 = icmp eq ptr %116, null
  br i1 %122, label %134, label %123

123:                                              ; preds = %121
  %124 = getelementptr inbounds i8, ptr %116, i64 56
  %125 = load ptr, ptr %124, align 8
  %126 = icmp eq ptr %125, null
  br i1 %126, label %127, label %133

127:                                              ; preds = %123
  %128 = getelementptr inbounds i8, ptr %2, i64 118
  %129 = load i16, ptr %128, align 2
  %130 = zext i16 %129 to i64
  %131 = add nsw i64 %130, -4
  %132 = call i32 @key_payload_reserve(ptr noundef %2, i64 noundef %131) #19
  br label %133

133:                                              ; preds = %127, %123
  call void @assoc_array_cancel_edit(ptr noundef nonnull %116) #19
  br label %134

134:                                              ; preds = %133, %121
  %135 = getelementptr inbounds i8, ptr %2, i64 32
  call void @up_write(ptr noundef %135) #19
  %136 = load ptr, ptr %117, align 8
  %137 = icmp eq ptr %136, @key_type_keyring
  br i1 %137, label %138, label %139

138:                                              ; preds = %134
  call void @mutex_unlock(ptr noundef nonnull @keyring_serialise_link_lock) #19
  br label %139

139:                                              ; preds = %138, %134
  %140 = icmp eq ptr %114, null
  br i1 %140, label %142, label %141

141:                                              ; preds = %139
  call void @assoc_array_cancel_edit(ptr noundef nonnull %114) #19
  br label %142

142:                                              ; preds = %141, %139
  %143 = getelementptr inbounds i8, ptr %1, i64 32
  call void @up_write(ptr noundef %143) #19
  br label %144

144:                                              ; preds = %142, %27, %4
  %145 = phi i32 [ 0, %4 ], [ %29, %27 ], [ %115, %142 ]
  call void @llvm.lifetime.end.p0(i64 8, ptr nonnull %6) #19
  ret i32 %145
}