; Function Attrs: fn_ret_thunk_extern nounwind null_pointer_is_valid
define dso_local i32 @key_move(ptr noundef %0, ptr noundef %1, ptr noundef %2, i32 noundef %3) #0 align 16 {
  %5 = alloca %struct.keyring_search_context, align 8
  %6 = icmp eq ptr %1, %2
  br i1 %6, label %.thread, label %7

7:                                                ; preds = %4
  %8 = getelementptr inbounds i8, ptr %0, i64 136
  %9 = getelementptr inbounds i8, ptr %1, i64 152
  %10 = load ptr, ptr %9, align 8
  %11 = icmp eq ptr %10, @key_type_keyring
  br i1 %11, label %12, label %.thread

12:                                               ; preds = %7
  %13 = getelementptr inbounds i8, ptr %2, i64 152
  %14 = load ptr, ptr %13, align 8
  %15 = icmp eq ptr %14, @key_type_keyring
  br i1 %15, label %16, label %.thread

16:                                               ; preds = %12
  %17 = icmp ult ptr %1, %2
  %18 = select i1 %17, ptr %1, ptr %2
  %19 = select i1 %17, ptr %2, ptr %1
  %20 = getelementptr inbounds i8, ptr %18, i64 32
  tail call void @down_write(ptr noundef %20) #20
  %21 = getelementptr inbounds i8, ptr %19, i64 32
  tail call void @down_write(ptr noundef %21) #20
  %22 = getelementptr inbounds i8, ptr %0, i64 152
  %23 = load ptr, ptr %22, align 8
  %24 = icmp eq ptr %23, @key_type_keyring
  br i1 %24, label %25, label %26

25:                                               ; preds = %16
  tail call void @mutex_lock(ptr noundef nonnull @keyring_serialise_link_lock) #20
  br label %26

26:                                               ; preds = %16, %25
  %27 = getelementptr inbounds i8, ptr %1, i64 192
  %28 = tail call ptr @assoc_array_delete(ptr noundef %27, ptr noundef nonnull @keyring_assoc_array_ops, ptr noundef %8) #20
  %29 = icmp ugt ptr %28, inttoptr (i64 -4096 to ptr)
  %30 = ptrtoint ptr %28 to i64
  %31 = trunc i64 %30 to i32
  %32 = icmp eq ptr %28, null
  %33 = select i1 %32, i32 -2, i32 0
  %34 = select i1 %29, ptr null, ptr %28
  %35 = select i1 %29, i32 %31, i32 %33
  %36 = icmp slt i32 %35, 0
  br i1 %36, label %__key_link_begin.exit.thread, label %37

37:                                               ; preds = %26
  %38 = getelementptr inbounds i8, ptr %0, i64 144
  %39 = load i16, ptr %38, align 8
  %40 = icmp eq i16 %39, 0
  br i1 %40, label %41, label %42, !prof !13

41:                                               ; preds = %37
  tail call void asm sideeffect "465: nop\0A\09.pushsection .discard.instr_begin\0A\09.long 465b - .\0A\09.popsection\0A\09", "i,~{dirflag},~{fpsr},~{flags}"(i32 465) #20, !srcloc !28
  tail call void asm sideeffect "1:\09.byte 0x0f, 0x0b\0A.pushsection __bug_table,\22aw\22\0A2:\09.long 1b - .\09# bug_entry::bug_addr\0A\09.long ${0:c} - .\09# bug_entry::file\0A\09.word ${1:c}\09# bug_entry::line\0A\09.word ${2:c}\09# bug_entry::flags\0A\09.org 2b+${3:c}\0A.popsection\0A", "i,i,i,i,~{dirflag},~{fpsr},~{flags}"(ptr nonnull @.str.1, i32 1302, i32 0, i64 12) #20, !srcloc !29
  unreachable

42:                                               ; preds = %37
  %43 = getelementptr inbounds i8, ptr %2, i64 128
  %44 = load volatile i64, ptr %43, align 8
  %45 = and i64 %44, 2
  %46 = icmp eq i64 %45, 0
  br i1 %46, label %47, label %__key_link_begin.exit.thread

47:                                               ; preds = %42
  %48 = getelementptr inbounds i8, ptr %2, i64 192
  %49 = tail call ptr @assoc_array_insert(ptr noundef %48, ptr noundef nonnull @keyring_assoc_array_ops, ptr noundef %8, ptr noundef null) #20
  %50 = icmp ugt ptr %49, inttoptr (i64 -4096 to ptr)
  br i1 %50, label %__key_link_begin.exit, label %51

51:                                               ; preds = %47
  %52 = getelementptr inbounds i8, ptr %49, i64 56
  %53 = load ptr, ptr %52, align 8
  %54 = icmp eq ptr %53, null
  br i1 %54, label %55, label %__key_link_begin.exit.thread16

55:                                               ; preds = %51
  %56 = getelementptr inbounds i8, ptr %2, i64 118
  %57 = load i16, ptr %56, align 2
  %58 = zext i16 %57 to i64
  %59 = add nuw nsw i64 %58, 4
  %60 = tail call i32 @key_payload_reserve(ptr noundef %2, i64 noundef %59) #20
  %61 = icmp slt i32 %60, 0
  br i1 %61, label %62, label %__key_link_begin.exit.thread16

62:                                               ; preds = %55
  tail call void @assoc_array_cancel_edit(ptr noundef %49) #20
  br label %__key_link_begin.exit.thread

__key_link_begin.exit:                            ; preds = %47
  %63 = ptrtoint ptr %49 to i64
  %64 = trunc i64 %63 to i32
  %65 = icmp slt i32 %64, 0
  br i1 %65, label %__key_link_begin.exit.thread, label %__key_link_begin.exit.thread16

__key_link_begin.exit.thread16:                   ; preds = %51, %55, %__key_link_begin.exit
  %.018 = phi ptr [ null, %__key_link_begin.exit ], [ %49, %55 ], [ %49, %51 ]
  %66 = getelementptr inbounds i8, ptr %.018, i64 56
  %67 = load ptr, ptr %66, align 8
  %68 = icmp eq ptr %67, null
  %69 = and i32 %3, 1
  %70 = icmp eq i32 %69, 0
  %71 = or i1 %70, %68
  br i1 %71, label %72, label %__key_link_begin.exit.thread

72:                                               ; preds = %__key_link_begin.exit.thread16
  %73 = getelementptr inbounds i8, ptr %2, i64 208
  %74 = load ptr, ptr %73, align 8
  %75 = icmp eq ptr %74, null
  br i1 %75, label %.thread20, label %76

76:                                               ; preds = %72
  %77 = load ptr, ptr %74, align 8
  %78 = icmp eq ptr %77, null
  br i1 %78, label %.thread20, label %79

79:                                               ; preds = %76
  %80 = load ptr, ptr %22, align 8
  %81 = getelementptr inbounds i8, ptr %0, i64 176
  %82 = getelementptr inbounds i8, ptr %74, i64 8
  %83 = load ptr, ptr %82, align 8
  %84 = tail call i32 %77(ptr noundef %2, ptr noundef %80, ptr noundef %81, ptr noundef %83) #20
  %85 = icmp slt i32 %84, 0
  br i1 %85, label %__key_link_begin.exit.thread, label %.thread20

.thread20:                                        ; preds = %72, %76, %79
  %86 = load ptr, ptr %22, align 8
  %87 = icmp eq ptr %86, @key_type_keyring
  br i1 %87, label %88, label %.thread22

88:                                               ; preds = %.thread20
  call void @llvm.lifetime.start.p0(i64 120, ptr nonnull %5) #20
  %89 = getelementptr inbounds i8, ptr %2, i64 136
  %90 = getelementptr inbounds i8, ptr %5, i64 40
  %91 = getelementptr inbounds i8, ptr %5, i64 80
  call void @llvm.memset.p0.i64(ptr noundef align 8 dereferenceable(80) %91, i8 0, i64 24, i1 false)
  call void @llvm.memcpy.p0.p0.i64(ptr noundef nonnull align 8 dereferenceable(40) %5, ptr noundef align 8 dereferenceable(40) %89, i64 40, i1 false)
  %92 = getelementptr inbounds i8, ptr %5, i64 56
  call void @llvm.memset.p0.i64(ptr noundef align 8 dereferenceable(40) %90, i8 0, i64 40, i1 false)
  store ptr %2, ptr %92, align 8
  %93 = getelementptr inbounds i8, ptr %5, i64 80
  store i32 93, ptr %93, align 8
  %94 = getelementptr inbounds i8, ptr %5, i64 88
  store ptr @keyring_detect_cycle_iterator, ptr %94, align 8
  %95 = getelementptr inbounds i8, ptr %5, i64 100
  store i8 0, ptr %95, align 4
  %96 = getelementptr inbounds i8, ptr %5, i64 104
  call void @llvm.memset.p0.i64(ptr noundef align 8 dereferenceable(16) %96, i8 0, i64 16, i1 false)
  tail call void @__rcu_read_lock() #20
  %97 = call fastcc zeroext i1 @search_nested_keyrings(ptr noundef %0, ptr noundef nonnull %5)
  call void @__rcu_read_unlock() #20
  %98 = load ptr, ptr %96, align 8
  %99 = icmp eq ptr %98, inttoptr (i64 -11 to ptr)
  call void @llvm.lifetime.end.p0(i64 120, ptr nonnull %5) #20
  br i1 %99, label %.thread22, label %100

100:                                              ; preds = %88
  %101 = ptrtoint ptr %98 to i64
  %102 = trunc i64 %101 to i32
  %103 = icmp slt i32 %102, 0
  br i1 %103, label %__key_link_begin.exit.thread, label %.thread22

.thread22:                                        ; preds = %88, %.thread20, %100
  %104 = phi i32 [ %102, %100 ], [ 0, %.thread20 ], [ 0, %88 ]
  call void @assoc_array_apply_edit(ptr noundef %34) #20
  %105 = getelementptr inbounds i8, ptr %1, i64 118
  %106 = load i16, ptr %105, align 2
  %107 = zext i16 %106 to i64
  %108 = add nsw i64 %107, -4
  %109 = call i32 @key_payload_reserve(ptr noundef %1, i64 noundef %108) #20
  %110 = call i32 asm sideeffect ".pushsection .smp_locks,\22a\22\0A.balign 4\0A.long 671f - .\0A.popsection\0A671:\0A\09lock; xaddl $0, $1\0A", "=r,=*m,0,*m,~{memory},~{cc},~{dirflag},~{fpsr},~{flags}"(ptr elementtype(i32) %0, i32 1, ptr elementtype(i32) %0) #20, !srcloc !12
  %111 = icmp eq i32 %110, 0
  br i1 %111, label %116, label %112, !prof !13

112:                                              ; preds = %.thread22
  %113 = add i32 %110, 1
  %114 = or i32 %113, %110
  %115 = icmp sgt i32 %114, -1
  br i1 %115, label %118, label %116, !prof !10

116:                                              ; preds = %112, %.thread22
  %117 = phi i32 [ 2, %.thread22 ], [ 1, %112 ]
  call void @refcount_warn_saturate(ptr noundef %0, i32 noundef %117) #20
  br label %118

118:                                              ; preds = %116, %112
  %119 = load ptr, ptr %22, align 8
  %120 = icmp eq ptr %119, @key_type_keyring
  %121 = ptrtoint ptr %0 to i64
  %122 = or i64 %121, 2
  %123 = inttoptr i64 %122 to ptr
  %124 = select i1 %120, ptr %123, ptr %0
  call void @assoc_array_insert_set_object(ptr noundef %.018, ptr noundef %124) #20
  call void @assoc_array_apply_edit(ptr noundef %.018) #20
  br label %__key_link_begin.exit.thread

__key_link_begin.exit.thread:                     ; preds = %42, %62, %118, %100, %79, %__key_link_begin.exit.thread16, %__key_link_begin.exit, %26
  %.1 = phi ptr [ null, %26 ], [ null, %__key_link_begin.exit ], [ %.018, %79 ], [ %.018, %100 ], [ null, %118 ], [ %.018, %__key_link_begin.exit.thread16 ], [ null, %62 ], [ null, %42 ]
  %125 = phi ptr [ %34, %26 ], [ %34, %__key_link_begin.exit ], [ %34, %79 ], [ %34, %100 ], [ null, %118 ], [ %34, %__key_link_begin.exit.thread16 ], [ %34, %62 ], [ %34, %42 ]
  %126 = phi i32 [ %35, %26 ], [ %64, %__key_link_begin.exit ], [ %84, %79 ], [ %102, %100 ], [ %104, %118 ], [ -17, %__key_link_begin.exit.thread16 ], [ %60, %62 ], [ -128, %42 ]
  %127 = load ptr, ptr %22, align 8
  %128 = icmp eq ptr %127, null
  br i1 %128, label %129, label %130, !prof !13

129:                                              ; preds = %__key_link_begin.exit.thread
  call void asm sideeffect "467: nop\0A\09.pushsection .discard.instr_begin\0A\09.long 467b - .\0A\09.popsection\0A\09", "i,~{dirflag},~{fpsr},~{flags}"(i32 467) #20, !srcloc !32
  call void asm sideeffect "1:\09.byte 0x0f, 0x0b\0A.pushsection __bug_table,\22aw\22\0A2:\09.long 1b - .\09# bug_entry::bug_addr\0A\09.long ${0:c} - .\09# bug_entry::file\0A\09.word ${1:c}\09# bug_entry::line\0A\09.word ${2:c}\09# bug_entry::flags\0A\09.org 2b+${3:c}\0A.popsection\0A", "i,i,i,i,~{dirflag},~{fpsr},~{flags}"(ptr nonnull @.str.1, i32 1388, i32 0, i64 12) #20, !srcloc !33
  unreachable

130:                                              ; preds = %__key_link_begin.exit.thread
  %131 = icmp eq ptr %.1, null
  br i1 %131, label %143, label %132

132:                                              ; preds = %130
  %133 = getelementptr inbounds i8, ptr %.1, i64 56
  %134 = load ptr, ptr %133, align 8
  %135 = icmp eq ptr %134, null
  br i1 %135, label %136, label %142

136:                                              ; preds = %132
  %137 = getelementptr inbounds i8, ptr %2, i64 118
  %138 = load i16, ptr %137, align 2
  %139 = zext i16 %138 to i64
  %140 = add nsw i64 %139, -4
  %141 = call i32 @key_payload_reserve(ptr noundef %2, i64 noundef %140) #20
  br label %142

142:                                              ; preds = %136, %132
  call void @assoc_array_cancel_edit(ptr noundef nonnull %.1) #20
  br label %143

143:                                              ; preds = %142, %130
  %144 = getelementptr inbounds i8, ptr %2, i64 32
  call void @up_write(ptr noundef %144) #20
  %145 = load ptr, ptr %22, align 8
  %146 = icmp eq ptr %145, @key_type_keyring
  br i1 %146, label %147, label %148

147:                                              ; preds = %143
  call void @mutex_unlock(ptr noundef nonnull @keyring_serialise_link_lock) #20
  br label %148

148:                                              ; preds = %147, %143
  %149 = icmp eq ptr %125, null
  br i1 %149, label %151, label %150

150:                                              ; preds = %148
  call void @assoc_array_cancel_edit(ptr noundef nonnull %125) #20
  br label %151

151:                                              ; preds = %150, %148
  %152 = getelementptr inbounds i8, ptr %1, i64 32
  call void @up_write(ptr noundef %152) #20
  br label %.thread

.thread:                                          ; preds = %7, %12, %151, %4
  %153 = phi i32 [ 0, %4 ], [ %126, %151 ], [ -20, %12 ], [ -20, %7 ]
  ret i32 %153
}